target datalayout = "e-m:e-p270:32:32-p271:32:32-p272:64:64-i64:64-i128:128-f80:128-n8:16:32:64-S128"
target triple = "x86_64-unknown-linux-gnu"

%"class.rocksdb::lru_cache::LRUHandleTable" = type { i32, %"class.std::unique_ptr", i32, i32, ptr }
%"class.std::unique_ptr" = type { %"struct.std::__uniq_ptr_data" }
%"struct.std::__uniq_ptr_data" = type { %"class.std::__uniq_ptr_impl" }
%"class.std::__uniq_ptr_impl" = type { %"class.std::tuple" }
%"class.std::tuple" = type { %"struct.std::_Tuple_impl" }
%"struct.std::_Tuple_impl" = type { %"struct.std::_Head_base.1" }
%"struct.std::_Head_base.1" = type { ptr }
%"struct.rocksdb::lru_cache::LRUHandle" = type { ptr, ptr, ptr, ptr, ptr, i64, i64, i32, i32, i8, i8, [1 x i8] }
%"class.rocksdb::Slice" = type { ptr, i64 }

; Function Attrs: mustprogress nounwind uwtable
define linkonce_odr noundef nonnull align 8 dereferenceable(8) ptr @_ZNSt10_Head_baseILm0EPPN7rocksdb9lru_cache9LRUHandleELb0EE7_M_headERKS5_(ptr noundef nonnull align 8 dereferenceable(8) %__b) #4 comdat align 2 {
entry:
  %__b.addr = alloca ptr, align 8
  store ptr %__b, ptr %__b.addr, align 8
  %0 = load ptr, ptr %__b.addr, align 8
  %_M_head_impl = getelementptr inbounds %"struct.std::_Head_base.1", ptr %0, i32 0, i32 0
  ret ptr %_M_head_impl
}

; Function Attrs: mustprogress nounwind uwtable
define linkonce_odr noundef nonnull align 8 dereferenceable(8) ptr @_ZNSt11_Tuple_implILm0EJPPN7rocksdb9lru_cache9LRUHandleESt14default_deleteIA_S3_EEE7_M_headERKS8_(ptr noundef nonnull align 8 dereferenceable(8) %__t) #4 comdat align 2 {
entry:
  %__t.addr = alloca ptr, align 8
  store ptr %__t, ptr %__t.addr, align 8
  %0 = load ptr, ptr %__t.addr, align 8
  %call = call noundef nonnull align 8 dereferenceable(8) ptr @_ZNSt10_Head_baseILm0EPPN7rocksdb9lru_cache9LRUHandleELb0EE7_M_headERKS5_(ptr noundef nonnull align 8 dereferenceable(8) %0) #15
  ret ptr %call
}

; Function Attrs: mustprogress nounwind uwtable
define linkonce_odr noundef nonnull align 8 dereferenceable(8) ptr @_ZSt12__get_helperILm0EPPN7rocksdb9lru_cache9LRUHandleEJSt14default_deleteIA_S3_EEERKT0_RKSt11_Tuple_implIXT_EJS8_DpT1_EE(ptr noundef nonnull align 8 dereferenceable(8) %__t) #4 comdat {
entry:
  %__t.addr = alloca ptr, align 8
  store ptr %__t, ptr %__t.addr, align 8
  %0 = load ptr, ptr %__t.addr, align 8
  %call = call noundef nonnull align 8 dereferenceable(8) ptr @_ZNSt11_Tuple_implILm0EJPPN7rocksdb9lru_cache9LRUHandleESt14default_deleteIA_S3_EEE7_M_headERKS8_(ptr noundef nonnull align 8 dereferenceable(8) %0) #15
  ret ptr %call
}

; Function Attrs: mustprogress nounwind uwtable
define linkonce_odr noundef nonnull align 8 dereferenceable(8) ptr @_ZSt3getILm0EJPPN7rocksdb9lru_cache9LRUHandleESt14default_deleteIA_S3_EEERKNSt13tuple_elementIXT_ESt5tupleIJDpT0_EEE4typeERKSC_(ptr noundef nonnull align 8 dereferenceable(8) %__t) #4 comdat {
entry:
  %__t.addr = alloca ptr, align 8
  store ptr %__t, ptr %__t.addr, align 8
  %0 = load ptr, ptr %__t.addr, align 8
  %call = call noundef nonnull align 8 dereferenceable(8) ptr @_ZSt12__get_helperILm0EPPN7rocksdb9lru_cache9LRUHandleEJSt14default_deleteIA_S3_EEERKT0_RKSt11_Tuple_implIXT_EJS8_DpT1_EE(ptr noundef nonnull align 8 dereferenceable(8) %0) #15
  ret ptr %call
}

; Function Attrs: mustprogress nounwind uwtable
define linkonce_odr noundef ptr @_ZNK7rocksdb5Slice4dataEv(ptr noundef nonnull align 8 dereferenceable(16) %this) #4 comdat align 2 {
entry:
  %this.addr = alloca ptr, align 8
  store ptr %this, ptr %this.addr, align 8
  %this1 = load ptr, ptr %this.addr, align 8
  %data_ = getelementptr inbounds %"class.rocksdb::Slice", ptr %this1, i32 0, i32 0
  %0 = load ptr, ptr %data_, align 8
  ret ptr %0
}

; Function Attrs: mustprogress nounwind uwtable
define linkonce_odr noundef i64 @_ZNK7rocksdb5Slice4sizeEv(ptr noundef nonnull align 8 dereferenceable(16) %this) #4 comdat align 2 {
entry:
  %this.addr = alloca ptr, align 8
  store ptr %this, ptr %this.addr, align 8
  %this1 = load ptr, ptr %this.addr, align 8
  %size_ = getelementptr inbounds %"class.rocksdb::Slice", ptr %this1, i32 0, i32 1
  %0 = load i64, ptr %size_, align 8
  ret i64 %0
}

; Function Attrs: mustprogress nounwind uwtable
define linkonce_odr noundef ptr @_ZNKSt15__uniq_ptr_implIPN7rocksdb9lru_cache9LRUHandleESt14default_deleteIA_S3_EE6_M_ptrEv(ptr noundef nonnull align 8 dereferenceable(8) %this) #4 comdat align 2 {
entry:
  %this.addr = alloca ptr, align 8
  store ptr %this, ptr %this.addr, align 8
  %this1 = load ptr, ptr %this.addr, align 8
  %_M_t = getelementptr inbounds %"class.std::__uniq_ptr_impl", ptr %this1, i32 0, i32 0
  %call = call noundef nonnull align 8 dereferenceable(8) ptr @_ZSt3getILm0EJPPN7rocksdb9lru_cache9LRUHandleESt14default_deleteIA_S3_EEERKNSt13tuple_elementIXT_ESt5tupleIJDpT0_EEE4typeERKSC_(ptr noundef nonnull align 8 dereferenceable(8) %_M_t) #15
  %0 = load ptr, ptr %call, align 8
  ret ptr %0
}

; Function Attrs: mustprogress uwtable
define linkonce_odr noundef zeroext i1 @_ZN7rocksdbeqERKNS_5SliceES2_(ptr noundef nonnull align 8 dereferenceable(16) %x, ptr noundef nonnull align 8 dereferenceable(16) %y) #0 comdat {
entry:
  %x.addr = alloca ptr, align 8
  %y.addr = alloca ptr, align 8
  store ptr %x, ptr %x.addr, align 8
  store ptr %y, ptr %y.addr, align 8
  %0 = load ptr, ptr %x.addr, align 8
  %call = call noundef i64 @_ZNK7rocksdb5Slice4sizeEv(ptr noundef nonnull align 8 dereferenceable(16) %0)
  %1 = load ptr, ptr %y.addr, align 8
  %call1 = call noundef i64 @_ZNK7rocksdb5Slice4sizeEv(ptr noundef nonnull align 8 dereferenceable(16) %1)
  %cmp = icmp eq i64 %call, %call1
  br i1 %cmp, label %land.rhs, label %land.end

land.rhs:                                         ; preds = %entry
  %2 = load ptr, ptr %x.addr, align 8
  %call2 = call noundef ptr @_ZNK7rocksdb5Slice4dataEv(ptr noundef nonnull align 8 dereferenceable(16) %2)
  %3 = load ptr, ptr %y.addr, align 8
  %call3 = call noundef ptr @_ZNK7rocksdb5Slice4dataEv(ptr noundef nonnull align 8 dereferenceable(16) %3)
  %4 = load ptr, ptr %x.addr, align 8
  %call4 = call noundef i64 @_ZNK7rocksdb5Slice4sizeEv(ptr noundef nonnull align 8 dereferenceable(16) %4)
  %call5 = call i32 @memcmp(ptr noundef %call2, ptr noundef %call3, i64 noundef %call4) #18
  %cmp6 = icmp eq i32 %call5, 0
  br label %land.end

land.end:                                         ; preds = %land.rhs, %entry
  %5 = phi i1 [ false, %entry ], [ %cmp6, %land.rhs ]
  ret i1 %5
}

; Function Attrs: mustprogress nounwind uwtable
define linkonce_odr void @_ZN7rocksdb5SliceC2EPKcm(ptr noundef nonnull align 8 dereferenceable(16) %this, ptr noundef %d, i64 noundef %n) unnamed_addr #4 comdat align 2 {
entry:
  %this.addr = alloca ptr, align 8
  %d.addr = alloca ptr, align 8
  %n.addr = alloca i64, align 8
  store ptr %this, ptr %this.addr, align 8
  store ptr %d, ptr %d.addr, align 8
  store i64 %n, ptr %n.addr, align 8
  %this1 = load ptr, ptr %this.addr, align 8
  %data_ = getelementptr inbounds %"class.rocksdb::Slice", ptr %this1, i32 0, i32 0
  %0 = load ptr, ptr %d.addr, align 8
  store ptr %0, ptr %data_, align 8
  %size_ = getelementptr inbounds %"class.rocksdb::Slice", ptr %this1, i32 0, i32 1
  %1 = load i64, ptr %n.addr, align 8
  store i64 %1, ptr %size_, align 8
  ret void
}

; Function Attrs: mustprogress nounwind uwtable
define linkonce_odr noundef ptr @_ZNKSt10unique_ptrIA_PN7rocksdb9lru_cache9LRUHandleESt14default_deleteIS4_EE3getEv(ptr noundef nonnull align 8 dereferenceable(8) %this) #4 comdat align 2 {
entry:
  %this.addr = alloca ptr, align 8
  store ptr %this, ptr %this.addr, align 8
  %this1 = load ptr, ptr %this.addr, align 8
  %_M_t = getelementptr inbounds %"class.std::unique_ptr", ptr %this1, i32 0, i32 0
  %call = call noundef ptr @_ZNKSt15__uniq_ptr_implIPN7rocksdb9lru_cache9LRUHandleESt14default_deleteIA_S3_EE6_M_ptrEv(ptr noundef nonnull align 8 dereferenceable(8) %_M_t) #15
  ret ptr %call
}

; Function Attrs: mustprogress uwtable
define linkonce_odr noundef zeroext i1 @_ZN7rocksdbneERKNS_5SliceES2_(ptr noundef nonnull align 8 dereferenceable(16) %x, ptr noundef nonnull align 8 dereferenceable(16) %y) #0 comdat {
entry:
  %x.addr = alloca ptr, align 8
  %y.addr = alloca ptr, align 8
  store ptr %x, ptr %x.addr, align 8
  store ptr %y, ptr %y.addr, align 8
  %0 = load ptr, ptr %x.addr, align 8
  %1 = load ptr, ptr %y.addr, align 8
  %call = call noundef zeroext i1 @_ZN7rocksdbeqERKNS_5SliceES2_(ptr noundef nonnull align 8 dereferenceable(16) %0, ptr noundef nonnull align 8 dereferenceable(16) %1)
  %lnot = xor i1 %call, true
  ret i1 %lnot
}

; Function Attrs: mustprogress uwtable
define linkonce_odr { ptr, i64 } @_ZNK7rocksdb9lru_cache9LRUHandle3keyEv(ptr noundef nonnull align 8 dereferenceable(72) %this) #0 comdat align 2 {
entry:
  %retval = alloca %"class.rocksdb::Slice", align 8
  %this.addr = alloca ptr, align 8
  store ptr %this, ptr %this.addr, align 8
  %this1 = load ptr, ptr %this.addr, align 8
  %key_data = getelementptr inbounds %"struct.rocksdb::lru_cache::LRUHandle", ptr %this1, i32 0, i32 11
  %arraydecay = getelementptr inbounds [1 x i8], ptr %key_data, i64 0, i64 0
  %key_length = getelementptr inbounds %"struct.rocksdb::lru_cache::LRUHandle", ptr %this1, i32 0, i32 6
  %0 = load i64, ptr %key_length, align 8
  call void @_ZN7rocksdb5SliceC2EPKcm(ptr noundef nonnull align 8 dereferenceable(16) %retval, ptr noundef %arraydecay, i64 noundef %0)
  %1 = load { ptr, i64 }, ptr %retval, align 8
  ret { ptr, i64 } %1
}

; Function Attrs: mustprogress nounwind uwtable
define linkonce_odr noundef nonnull align 8 dereferenceable(8) ptr @_ZNKSt10unique_ptrIA_PN7rocksdb9lru_cache9LRUHandleESt14default_deleteIS4_EEixEm(ptr noundef nonnull align 8 dereferenceable(8) %this, i64 noundef %__i) #4 comdat align 2 {
entry:
  %this.addr = alloca ptr, align 8
  %__i.addr = alloca i64, align 8
  store ptr %this, ptr %this.addr, align 8
  store i64 %__i, ptr %__i.addr, align 8
  %this1 = load ptr, ptr %this.addr, align 8
  br label %do.body

do.body:                                          ; preds = %entry
  br label %do.end

do.end:                                           ; preds = %do.body
  %call = call noundef ptr @_ZNKSt10unique_ptrIA_PN7rocksdb9lru_cache9LRUHandleESt14default_deleteIS4_EE3getEv(ptr noundef nonnull align 8 dereferenceable(8) %this1) #15
  %0 = load i64, ptr %__i.addr, align 8
  %arrayidx = getelementptr inbounds ptr, ptr %call, i64 %0
  ret ptr %arrayidx
}

; Function Attrs: mustprogress uwtable
define noundef ptr @_ZN7rocksdb9lru_cache14LRUHandleTable11FindPointerERKNS_5SliceEj(ptr noundef nonnull align 8 dereferenceable(32) %this, ptr noundef nonnull align 8 dereferenceable(16) %key, i32 noundef %hash) #0 align 2 {
entry:
  %this.addr = alloca ptr, align 8
  %key.addr = alloca ptr, align 8
  %hash.addr = alloca i32, align 4
  %ptr = alloca ptr, align 8
  %ref.tmp = alloca %"class.rocksdb::Slice", align 8
  store ptr %this, ptr %this.addr, align 8
  store ptr %key, ptr %key.addr, align 8
  store i32 %hash, ptr %hash.addr, align 4
  %this1 = load ptr, ptr %this.addr, align 8
  %list_ = getelementptr inbounds %"class.rocksdb::lru_cache::LRUHandleTable", ptr %this1, i32 0, i32 1
  %0 = load i32, ptr %hash.addr, align 4
  %length_bits_ = getelementptr inbounds %"class.rocksdb::lru_cache::LRUHandleTable", ptr %this1, i32 0, i32 0
  %1 = load i32, ptr %length_bits_, align 8
  %sub = sub nsw i32 32, %1
  %shr = lshr i32 %0, %sub
  %conv = zext i32 %shr to i64
  %call = call noundef nonnull align 8 dereferenceable(8) ptr @_ZNKSt10unique_ptrIA_PN7rocksdb9lru_cache9LRUHandleESt14default_deleteIS4_EEixEm(ptr noundef nonnull align 8 dereferenceable(8) %list_, i64 noundef %conv)
  store ptr %call, ptr %ptr, align 8
  br label %while.cond

while.cond:                                       ; preds = %while.body, %entry
  %2 = load ptr, ptr %ptr, align 8
  %3 = load ptr, ptr %2, align 8
  %cmp = icmp ne ptr %3, null
  br i1 %cmp, label %land.rhs, label %land.end

land.rhs:                                         ; preds = %while.cond
  %4 = load ptr, ptr %ptr, align 8
  %5 = load ptr, ptr %4, align 8
  %hash2 = getelementptr inbounds %"struct.rocksdb::lru_cache::LRUHandle", ptr %5, i32 0, i32 7
  %6 = load i32, ptr %hash2, align 8
  %7 = load i32, ptr %hash.addr, align 4
  %cmp3 = icmp ne i32 %6, %7
  br i1 %cmp3, label %lor.end, label %lor.rhs

lor.rhs:                                          ; preds = %land.rhs
  %8 = load ptr, ptr %key.addr, align 8
  %9 = load ptr, ptr %ptr, align 8
  %10 = load ptr, ptr %9, align 8
  %call4 = call { ptr, i64 } @_ZNK7rocksdb9lru_cache9LRUHandle3keyEv(ptr noundef nonnull align 8 dereferenceable(72) %10)
  %11 = getelementptr inbounds { ptr, i64 }, ptr %ref.tmp, i32 0, i32 0
  %12 = extractvalue { ptr, i64 } %call4, 0
  store ptr %12, ptr %11, align 8
  %13 = getelementptr inbounds { ptr, i64 }, ptr %ref.tmp, i32 0, i32 1
  %14 = extractvalue { ptr, i64 } %call4, 1
  store i64 %14, ptr %13, align 8
  %call5 = call noundef zeroext i1 @_ZN7rocksdbneERKNS_5SliceES2_(ptr noundef nonnull align 8 dereferenceable(16) %8, ptr noundef nonnull align 8 dereferenceable(16) %ref.tmp)
  br label %lor.end

lor.end:                                          ; preds = %lor.rhs, %land.rhs
  %15 = phi i1 [ true, %land.rhs ], [ %call5, %lor.rhs ]
  br label %land.end

land.end:                                         ; preds = %lor.end, %while.cond
  %16 = phi i1 [ false, %while.cond ], [ %15, %lor.end ]
  br i1 %16, label %while.body, label %while.end

while.body:                                       ; preds = %land.end
  %17 = load ptr, ptr %ptr, align 8
  %18 = load ptr, ptr %17, align 8
  %next_hash = getelementptr inbounds %"struct.rocksdb::lru_cache::LRUHandle", ptr %18, i32 0, i32 2
  store ptr %next_hash, ptr %ptr, align 8
  br label %while.cond, !llvm.loop !7

while.end:                                        ; preds = %land.end
  %19 = load ptr, ptr %ptr, align 8
  ret ptr %19
}

; Function Attrs: mustprogress uwtable
define noundef ptr @_ZN7rocksdb9lru_cache14LRUHandleTable6RemoveERKNS_5SliceEj(ptr noundef nonnull align 8 dereferenceable(32) %this, ptr noundef nonnull align 8 dereferenceable(16) %key, i32 noundef %hash) #0 align 2 {
entry:
  %this.addr = alloca ptr, align 8
  %key.addr = alloca ptr, align 8
  %hash.addr = alloca i32, align 4
  %ptr = alloca ptr, align 8
  %result = alloca ptr, align 8
  store ptr %this, ptr %this.addr, align 8
  store ptr %key, ptr %key.addr, align 8
  store i32 %hash, ptr %hash.addr, align 4
  %this1 = load ptr, ptr %this.addr, align 8
  %0 = load ptr, ptr %key.addr, align 8
  %1 = load i32, ptr %hash.addr, align 4
  %call = call noundef ptr @_ZN7rocksdb9lru_cache14LRUHandleTable11FindPointerERKNS_5SliceEj(ptr noundef nonnull align 8 dereferenceable(32) %this1, ptr noundef nonnull align 8 dereferenceable(16) %0, i32 noundef %1)
  store ptr %call, ptr %ptr, align 8
  %2 = load ptr, ptr %ptr, align 8
  %3 = load ptr, ptr %2, align 8
  store ptr %3, ptr %result, align 8
  %4 = load ptr, ptr %result, align 8
  %cmp = icmp ne ptr %4, null
  br i1 %cmp, label %if.then, label %if.end

if.then:                                          ; preds = %entry
  %5 = load ptr, ptr %result, align 8
  %next_hash = getelementptr inbounds %"struct.rocksdb::lru_cache::LRUHandle", ptr %5, i32 0, i32 2
  %6 = load ptr, ptr %next_hash, align 8
  %7 = load ptr, ptr %ptr, align 8
  store ptr %6, ptr %7, align 8
  %elems_ = getelementptr inbounds %"class.rocksdb::lru_cache::LRUHandleTable", ptr %this1, i32 0, i32 2
  %8 = load i32, ptr %elems_, align 8
  %dec = add i32 %8, -1
  store i32 %dec, ptr %elems_, align 8
  br label %if.end

if.end:                                           ; preds = %if.then, %entry
  %9 = load ptr, ptr %result, align 8
  ret ptr %9
}