; Function Attrs: mustprogress nofree nounwind memory(readwrite, inaccessiblemem: none) uwtable
define noundef ptr @_ZN7rocksdb9lru_cache14LRUHandleTable6RemoveERKNS_5SliceEj(ptr nocapture noundef nonnull align 8 dereferenceable(32) %this, ptr nocapture noundef nonnull readonly align 8 dereferenceable(16) %key, i32 noundef %hash) local_unnamed_addr #6 align 2 {
entry:
  %list_.i = getelementptr inbounds i8, ptr %this, i64 8
  %0 = load i32, ptr %this, align 8
  %sub.i = sub nsw i32 32, %0
  %shr.i = lshr i32 %hash, %sub.i
  %conv.i = zext i32 %shr.i to i64
  %1 = load ptr, ptr %list_.i, align 8
  %arrayidx.i.i = getelementptr inbounds ptr, ptr %1, i64 %conv.i
  %2 = load ptr, ptr %arrayidx.i.i, align 8
  %cmp.not7.i = icmp eq ptr %2, null
  br i1 %cmp.not7.i, label %if.end, label %land.rhs.lr.ph.i

land.rhs.lr.ph.i:                                 ; preds = %entry
  %size_.i.i.i.i = getelementptr inbounds i8, ptr %key, i64 8
  %3 = load i64, ptr %size_.i.i.i.i, align 8
  %4 = load ptr, ptr %key, align 8
  br label %land.rhs.i

land.rhs.i:                                       ; preds = %while.body.i, %land.rhs.lr.ph.i
  %.pr = phi ptr [ %2, %land.rhs.lr.ph.i ], [ %7, %while.body.i ]
  %ptr.08.i = phi ptr [ %arrayidx.i.i, %land.rhs.lr.ph.i ], [ %next_hash.i, %while.body.i ]
  %hash2.i = getelementptr inbounds i8, ptr %.pr, i64 56
  %5 = load i32, ptr %hash2.i, align 8
  %cmp3.not.i = icmp eq i32 %5, %hash
  br i1 %cmp3.not.i, label %lor.rhs.i, label %while.body.i

lor.rhs.i:                                        ; preds = %land.rhs.i
  %key_length.i.i = getelementptr inbounds i8, ptr %.pr, i64 48
  %6 = load i64, ptr %key_length.i.i, align 8
  %cmp.i.i.i = icmp eq i64 %3, %6
  br i1 %cmp.i.i.i, label %_ZN7rocksdbneERKNS_5SliceES2_.exit.i, label %while.body.i

_ZN7rocksdbneERKNS_5SliceES2_.exit.i:             ; preds = %lor.rhs.i
  %key_data.i.i = getelementptr inbounds i8, ptr %.pr, i64 66
  %bcmp.i.i.i = tail call i32 @bcmp(ptr %4, ptr nonnull %key_data.i.i, i64 %3)
  %cmp6.i.i.not.i = icmp eq i32 %bcmp.i.i.i, 0
  br i1 %cmp6.i.i.not.i, label %if.then, label %while.body.i

while.body.i:                                     ; preds = %_ZN7rocksdbneERKNS_5SliceES2_.exit.i, %lor.rhs.i, %land.rhs.i
  %next_hash.i = getelementptr inbounds i8, ptr %.pr, i64 16
  %7 = load ptr, ptr %next_hash.i, align 8
  %cmp.not.i = icmp eq ptr %7, null
  br i1 %cmp.not.i, label %if.end, label %land.rhs.i, !llvm.loop !7

if.then:                                          ; preds = %_ZN7rocksdbneERKNS_5SliceES2_.exit.i
  %next_hash = getelementptr inbounds i8, ptr %.pr, i64 16
  %8 = load ptr, ptr %next_hash, align 8
  store ptr %8, ptr %ptr.08.i, align 8
  %elems_ = getelementptr inbounds i8, ptr %this, i64 16
  %9 = load i32, ptr %elems_, align 8
  %dec = add i32 %9, -1
  store i32 %dec, ptr %elems_, align 8
  br label %if.end

if.end:                                           ; preds = %while.body.i, %entry, %if.then
  %10 = phi ptr [ %.pr, %if.then ], [ null, %entry ], [ null, %while.body.i ]
  ret ptr %10
}